target datalayout = "e-m:e-p270:32:32-p271:32:32-p272:64:64-i64:64-i128:128-f80:128-n8:16:32:64-S128"
target triple = "x86_64-pc-linux-gnu"

; Function Attrs: inlinehint mustprogress nounwind uwtable
define internal noundef signext i8 @_ZL9U_FAILURE10UErrorCode(i32 noundef %0) #5 {
  %2 = alloca i32, align 4
  store i32 %0, ptr %2, align 4, !tbaa !13
  %3 = load i32, ptr %2, align 4, !tbaa !13
  %4 = icmp sgt i32 %3, 0
  %5 = zext i1 %4 to i8
  ret i8 %5
}

; Function Attrs: mustprogress uwtable
define ptr @udatpg_clone_77(ptr noundef %0, ptr noundef %1) #0 {
  %3 = alloca ptr, align 8
  %4 = alloca ptr, align 8
  %5 = alloca ptr, align 8
  store ptr %0, ptr %4, align 8, !tbaa !9
  store ptr %1, ptr %5, align 8, !tbaa !8
  %6 = load ptr, ptr %5, align 8, !tbaa !8
  %7 = load i32, ptr %6, align 4, !tbaa !13
  %8 = call noundef signext i8 @_ZL9U_FAILURE10UErrorCode(i32 noundef %7)
  %9 = icmp ne i8 %8, 0
  br i1 %9, label %10, label %11

10:                                               ; preds = %2
  store ptr null, ptr %3, align 8
  br label %14

11:                                               ; preds = %2
  %12 = load ptr, ptr %4, align 8, !tbaa !9
  %13 = call noundef ptr @_ZNK6icu_7724DateTimePatternGenerator5cloneEv(ptr noundef nonnull align 8 dereferenceable(4796) %12)
  store ptr %13, ptr %3, align 8
  br label %14

14:                                               ; preds = %11, %10
  %15 = load ptr, ptr %3, align 8
  ret ptr %15
}