; Function Attrs: mustprogress uwtable
define noundef ptr @udatpg_clone_77(ptr noundef %0, ptr noundef readonly captures(none) %1) local_unnamed_addr #0 {
  %3 = load i32, ptr %1, align 4, !tbaa !6
  %4 = icmp slt i32 %3, 1
  br i1 %4, label %5, label %7

5:                                                ; preds = %2
  %6 = tail call noundef ptr @_ZNK6icu_7724DateTimePatternGenerator5cloneEv(ptr noundef nonnull align 8 dereferenceable(4796) %0)
  br label %7

7:                                                ; preds = %2, %5
  %.0 = phi ptr [ %6, %5 ], [ null, %2 ]
  ret ptr %.0
}